target datalayout = "e-m:e-p270:32:32-p271:32:32-p272:64:64-i64:64-i128:128-f80:128-n8:16:32:64-S128"
target triple = "x86_64-pc-linux-gnu"

%class.goal2sat = type <{ ptr, i32, [4 x i8] }>

; Function Attrs: mustprogress uwtable
define hidden noundef nonnull align 8 dereferenceable(8) ptr @_ZN8goal2sat2siER11ast_managerRK10params_refRN3sat11solver_coreER13atom2bool_varR7obj_mapI4exprNS5_7literalEEb(ptr noundef nonnull align 8 dereferenceable(12) %0, ptr noundef nonnull align 8 dereferenceable(976) %1, ptr noundef nonnull align 8 dereferenceable(8) %2, ptr noundef nonnull align 8 dereferenceable(16) %3, ptr noundef nonnull align 8 dereferenceable(41) %4, ptr noundef nonnull align 8 dereferenceable(24) %5, i1 noundef zeroext %6) #5 align 2 {
  %8 = alloca ptr, align 8
  %9 = alloca ptr, align 8
  %10 = alloca ptr, align 8
  %11 = alloca ptr, align 8
  %12 = alloca ptr, align 8
  %13 = alloca ptr, align 8
  %14 = alloca i8, align 1
  store ptr %0, ptr %8, align 8, !tbaa !8
  store ptr %1, ptr %9, align 8, !tbaa !85
  store ptr %2, ptr %10, align 8, !tbaa !86
  store ptr %3, ptr %11, align 8, !tbaa !88
  store ptr %4, ptr %12, align 8, !tbaa !89
  store ptr %5, ptr %13, align 8, !tbaa !90
  %15 = zext i1 %6 to i8
  store i8 %15, ptr %14, align 1, !tbaa !91
  %16 = load ptr, ptr %8, align 8
  %17 = getelementptr inbounds nuw %class.goal2sat, ptr %16, i32 0, i32 0
  %18 = load ptr, ptr %17, align 8, !tbaa !10
  %19 = icmp ne ptr %18, null
  br i1 %19, label %30, label %20

20:                                               ; preds = %7
  %21 = call noalias noundef ptr @_ZN6memory8allocateEm(i64 noundef 304)
  %22 = load ptr, ptr %9, align 8, !tbaa !85
  %23 = load ptr, ptr %10, align 8, !tbaa !86
  %24 = load ptr, ptr %11, align 8, !tbaa !88
  %25 = load ptr, ptr %12, align 8, !tbaa !89
  %26 = load ptr, ptr %13, align 8, !tbaa !90
  %27 = load i8, ptr %14, align 1, !tbaa !91, !range !92, !noundef !93
  %28 = trunc i8 %27 to i1
  call void @_ZN8goal2sat3impC2ER11ast_managerRK10params_refRN3sat11solver_coreER13atom2bool_varR7obj_mapI4exprNS6_7literalEEb(ptr noundef nonnull align 8 dereferenceable(300) %21, ptr noundef nonnull align 8 dereferenceable(976) %22, ptr noundef nonnull align 8 dereferenceable(8) %23, ptr noundef nonnull align 8 dereferenceable(16) %24, ptr noundef nonnull align 8 dereferenceable(41) %25, ptr noundef nonnull align 8 dereferenceable(24) %26, i1 noundef zeroext %28)
  %29 = getelementptr inbounds nuw %class.goal2sat, ptr %16, i32 0, i32 0
  store ptr %21, ptr %29, align 8, !tbaa !10
  br label %30

30:                                               ; preds = %20, %7
  %31 = getelementptr inbounds nuw %class.goal2sat, ptr %16, i32 0, i32 0
  %32 = load ptr, ptr %31, align 8, !tbaa !10
  ret ptr %32
}