; Function Attrs: mustprogress uwtable
define hidden noundef nonnull align 8 dereferenceable(8) ptr @_ZN8goal2sat2siER11ast_managerRK10params_refRN3sat11solver_coreER13atom2bool_varR7obj_mapI4exprNS5_7literalEEb(ptr noundef nonnull align 8 captures(none) dereferenceable(12) %0, ptr noundef nonnull align 8 dereferenceable(976) %1, ptr noundef nonnull align 8 dereferenceable(8) %2, ptr noundef nonnull align 8 dereferenceable(16) %3, ptr noundef nonnull align 8 dereferenceable(41) %4, ptr noundef nonnull align 8 dereferenceable(24) %5, i1 noundef zeroext %6) local_unnamed_addr #8 align 2 {
  %8 = load ptr, ptr %0, align 8, !tbaa !3
  %.not = icmp eq ptr %8, null
  br i1 %.not, label %9, label %11

9:                                                ; preds = %7
  %10 = tail call noalias noundef ptr @_ZN6memory8allocateEm(i64 noundef 304)
  tail call void @_ZN8goal2sat3impC2ER11ast_managerRK10params_refRN3sat11solver_coreER13atom2bool_varR7obj_mapI4exprNS6_7literalEEb(ptr noundef nonnull align 8 dereferenceable(300) %10, ptr noundef nonnull align 8 dereferenceable(976) %1, ptr noundef nonnull align 8 dereferenceable(8) %2, ptr noundef nonnull align 8 dereferenceable(16) %3, ptr noundef nonnull align 8 dereferenceable(41) %4, ptr noundef nonnull align 8 dereferenceable(24) %5, i1 noundef zeroext %6)
  store ptr %10, ptr %0, align 8, !tbaa !3
  br label %11

11:                                               ; preds = %9, %7
  %12 = phi ptr [ %10, %9 ], [ %8, %7 ]
  ret ptr %12
}